target datalayout = "e-m:e-p270:32:32-p271:32:32-p272:64:64-i64:64-i128:128-f80:128-n8:16:32:64-S128"
target triple = "x86_64-unknown-linux-gnu"

%"class.v8::IndirectHandleBase" = type { ptr }
%"class.node::MemoryRetainer" = type { ptr }
%"struct.std::__detail::_Hash_node_base" = type { ptr }
%"struct.std::__detail::_Prime_rehash_policy" = type { float, i64 }
%"class.v8::Global.17" = type { %"class.v8::PersistentBase.18" }
%"class.v8::PersistentBase.18" = type { %"class.v8::IndirectHandleBase" }
%"class.std::vector.96" = type { %"struct.std::_Vector_base.97" }
%"struct.std::_Vector_base.97" = type { %"struct.std::_Vector_base<std::__cxx11::basic_string<char>, std::allocator<std::__cxx11::basic_string<char>>>::_Vector_impl" }
%"struct.std::_Vector_base<std::__cxx11::basic_string<char>, std::allocator<std::__cxx11::basic_string<char>>>::_Vector_impl" = type { %"struct.std::_Vector_base<std::__cxx11::basic_string<char>, std::allocator<std::__cxx11::basic_string<char>>>::_Vector_impl_data" }
%"struct.std::_Vector_base<std::__cxx11::basic_string<char>, std::allocator<std::__cxx11::basic_string<char>>>::_Vector_impl_data" = type { ptr, ptr, ptr }
%"class.node::CleanupQueue" = type { %"class.node::MemoryRetainer", %"class.std::unordered_set.184", i64 }
%"class.std::unordered_set.184" = type { %"class.std::_Hashtable.185" }
%"class.std::_Hashtable.185" = type { ptr, i64, %"struct.std::__detail::_Hash_node_base", i64, %"struct.std::__detail::_Prime_rehash_policy", ptr }
%"class.node::BaseObject" = type { %"class.node::MemoryRetainer", %"class.v8::Global.257", ptr, ptr }
%"class.v8::Global.257" = type { %"class.v8::PersistentBase.258" }
%"class.v8::PersistentBase.258" = type { %"class.v8::IndirectHandleBase" }
%"class.node::Realm" = type { %"class.node::MemoryRetainer", %"class.std::set", %"class.std::set.265", %"class.std::set.265", %"class.std::vector.96", ptr, ptr, %"class.v8::Global.273", %"class.v8::Global.17", %"class.v8::Global.17", %"class.v8::Global.17", %"class.v8::Global.257", %"class.v8::Global.17", %"class.v8::Global.17", %"class.v8::Global.17", %"class.v8::Global.257", %"class.v8::Global.17", %"class.v8::Global.17", %"class.v8::Global.17", %"class.v8::Global.17", %"class.v8::Global.17", %"class.v8::Global.17", %"class.v8::Global.17", %"class.v8::Global.17", %"class.v8::Global.17", %"class.v8::Global.17", %"class.v8::Global.17", %"class.v8::Global.17", %"class.v8::Global.17", %"class.v8::Global.17", %"class.v8::Global.17", %"class.v8::Global.17", %"class.v8::Global.17", %"class.v8::Global.17", %"class.v8::Global.17", %"class.v8::Global.17", %"class.v8::Global.17", %"class.v8::Global.17", %"class.v8::Global.17", %"class.v8::Global.17", %"class.v8::Global.17", %"class.v8::Global.17", %"class.v8::Global.17", %"class.v8::Global.17", %"class.v8::Global.257", %"class.v8::Global.17", %"class.v8::Global.17", %"class.v8::Global.17", %"class.v8::Global.257", %"class.v8::Global.257", %"class.v8::Global.257", %"class.v8::Global.257", %"class.v8::Global.257", %"class.v8::Global.257", %"class.v8::Global.17", %"class.v8::Global.17", %"class.v8::Global.17", %"class.v8::Global.17", %"class.v8::Global.17", %"class.v8::Global.17", %"class.v8::Global.17", %"class.v8::Global.17", %"class.v8::Global.17", %"class.v8::Global.17", %"class.v8::Global.17", %"class.v8::Global.17", %"class.v8::Global.17", %"class.v8::Global.17", i32, i8, i64, i64, %"struct.std::array.275", %"class.node::CleanupQueue" }
%"class.std::set" = type { %"class.std::_Rb_tree" }
%"class.std::_Rb_tree" = type { %"struct.std::_Rb_tree<node::node_module *, node::node_module *, std::_Identity<node::node_module *>, std::less<node::node_module *>>::_Rb_tree_impl" }
%"struct.std::_Rb_tree<node::node_module *, node::node_module *, std::_Identity<node::node_module *>, std::less<node::node_module *>>::_Rb_tree_impl" = type { %"struct.std::_Rb_tree_key_compare", %"struct.std::_Rb_tree_header" }
%"struct.std::_Rb_tree_key_compare" = type { %"struct.std::less" }
%"struct.std::less" = type { i8 }
%"struct.std::_Rb_tree_header" = type { %"struct.std::_Rb_tree_node_base", i64 }
%"struct.std::_Rb_tree_node_base" = type { i32, ptr, ptr, ptr }
%"class.std::set.265" = type { %"class.std::_Rb_tree.266" }
%"class.std::_Rb_tree.266" = type { %"struct.std::_Rb_tree<std::__cxx11::basic_string<char>, std::__cxx11::basic_string<char>, std::_Identity<std::__cxx11::basic_string<char>>, std::less<std::__cxx11::basic_string<char>>>::_Rb_tree_impl" }
%"struct.std::_Rb_tree<std::__cxx11::basic_string<char>, std::__cxx11::basic_string<char>, std::_Identity<std::__cxx11::basic_string<char>>, std::less<std::__cxx11::basic_string<char>>>::_Rb_tree_impl" = type { %"struct.std::_Rb_tree_key_compare.270", %"struct.std::_Rb_tree_header" }
%"struct.std::_Rb_tree_key_compare.270" = type { %"struct.std::less.271" }
%"struct.std::less.271" = type { i8 }
%"class.v8::Global.273" = type { %"class.v8::PersistentBase.274" }
%"class.v8::PersistentBase.274" = type { %"class.v8::IndirectHandleBase" }
%"struct.std::array.275" = type { [12 x %"class.node::BaseObjectPtrImpl"] }
%"class.node::BaseObjectPtrImpl" = type { %union.anon.276 }
%union.anon.276 = type { ptr }

; Function Attrs: mustprogress nounwind uwtable
define linkonce_odr dso_local noundef ptr @_ZNK4node5Realm3envEv(ptr noundef nonnull align 8 dereferenceable(872) %this) #4 comdat align 2 {
entry:
  %this.addr = alloca ptr, align 8
  store ptr %this, ptr %this.addr, align 8
  %this1 = load ptr, ptr %this.addr, align 8
  %env_ = getelementptr inbounds %"class.node::Realm", ptr %this1, i32 0, i32 5
  %0 = load ptr, ptr %env_, align 8
  ret ptr %0
}

; Function Attrs: mustprogress nounwind uwtable
define linkonce_odr dso_local noundef ptr @_ZNK4node10BaseObject3envEv(ptr noundef nonnull align 8 dereferenceable(32) %this) #4 comdat align 2 {
entry:
  %this.addr = alloca ptr, align 8
  store ptr %this, ptr %this.addr, align 8
  %this1 = load ptr, ptr %this.addr, align 8
  %realm_ = getelementptr inbounds %"class.node::BaseObject", ptr %this1, i32 0, i32 2
  %0 = load ptr, ptr %realm_, align 8
  %call = call noundef ptr @_ZNK4node5Realm3envEv(ptr noundef nonnull align 8 dereferenceable(872) %0)
  ret ptr %call
}

; Function Attrs: mustprogress nounwind uwtable
define dso_local void @_ZN4node6timers11BindingData18ToggleTimerRefImplEPS1_b(ptr noundef %data, i1 noundef zeroext %ref) #4 align 2 {
entry:
  %data.addr = alloca ptr, align 8
  %ref.addr = alloca i8, align 1
  store ptr %data, ptr %data.addr, align 8
  %frombool = zext i1 %ref to i8
  store i8 %frombool, ptr %ref.addr, align 1
  %0 = load ptr, ptr %data.addr, align 8
  %call = call noundef ptr @_ZNK4node10BaseObject3envEv(ptr noundef nonnull align 8 dereferenceable(32) %0)
  %1 = load i8, ptr %ref.addr, align 1
  %tobool = trunc i8 %1 to i1
  call void @_ZN4node11Environment14ToggleTimerRefEb(ptr noundef nonnull align 8 dereferenceable(2872) %call, i1 noundef zeroext %tobool)
  ret void
}